; Function Attrs: null_pointer_is_valid sspstrong uwtable
define internal fastcc i32 @dissect_query_afp_enumerate_ext2(ptr noundef %0, ptr noundef readonly captures(none) %1, ptr noundef %2) unnamed_addr #1 {
  %4 = load i32, ptr @hf_afp_pad, align 4
  %5 = tail call ptr @proto_tree_add_item(ptr noundef %2, i32 noundef %4, ptr noundef %0, i32 noundef 1, i32 noundef 1, i32 noundef 0)
  %6 = tail call fastcc i32 @decode_vol_did_file_dir_bitmap(ptr noundef %2, ptr noundef %0)
  %7 = load i32, ptr @hf_afp_req_count, align 4
  %8 = tail call ptr @proto_tree_add_item(ptr noundef %2, i32 noundef %7, ptr noundef %0, i32 noundef %6, i32 noundef 2, i32 noundef 0)
  %9 = add i32 %6, 2
  %10 = load i32, ptr @hf_afp_start_index32, align 4
  %11 = tail call ptr @proto_tree_add_item(ptr noundef %2, i32 noundef %10, ptr noundef %0, i32 noundef %9, i32 noundef 4, i32 noundef 0)
  %12 = add i32 %6, 6
  %13 = load i32, ptr @hf_afp_max_reply_size32, align 4
  %14 = tail call ptr @proto_tree_add_item(ptr noundef %2, i32 noundef %13, ptr noundef %0, i32 noundef %12, i32 noundef 4, i32 noundef 0)
  %15 = add i32 %6, 10
  %16 = tail call fastcc i32 @decode_name_label(ptr noundef %2, ptr noundef readonly %1, ptr noundef %0, i32 noundef %15, ptr noundef nonnull @.str.1065, i1 noundef zeroext true)
  ret i32 %16
}